target datalayout = "e-m:e-p270:32:32-p271:32:32-p272:64:64-i64:64-i128:128-f80:128-n8:16:32:64-S128"
target triple = "x86_64-pc-linux-gnu"

@seq_instr = internal constant [7 x [2 x i32]] [[2 x i32] [i32 1, i32 1], [2 x i32] [i32 0, i32 2], [2 x i32] [i32 4, i32 4], [2 x i32] [i32 5, i32 4], [2 x i32] [i32 6, i32 4], [2 x i32] [i32 14, i32 5], [2 x i32] [i32 15, i32 5]], align 16

; Function Attrs: nounwind uwtable
define internal void @write_three_large(ptr noundef %0, ptr noundef %1, ptr noundef %2, i32 noundef %3, ptr noundef %4, ptr noundef %5) #0 {
  %7 = alloca ptr, align 8
  %8 = alloca ptr, align 8
  %9 = alloca ptr, align 8
  %10 = alloca i32, align 4
  %11 = alloca ptr, align 8
  %12 = alloca ptr, align 8
  store ptr %0, ptr %7, align 8
  store ptr %1, ptr %8, align 8
  store ptr %2, ptr %9, align 8
  store i32 %3, ptr %10, align 4
  store ptr %4, ptr %11, align 8
  store ptr %5, ptr %12, align 8
  %13 = load ptr, ptr %8, align 8
  %14 = load ptr, ptr %9, align 8
  %15 = load ptr, ptr %11, align 8
  call void @trajcoder_base_compress(ptr noundef %13, i32 noundef 3, ptr noundef %14, ptr noundef %15)
  %16 = load ptr, ptr %7, align 8
  %17 = load ptr, ptr %11, align 8
  %18 = load i32, ptr %10, align 4
  %19 = load ptr, ptr %12, align 8
  call void @Ptngc_writemanybits(ptr noundef %16, ptr noundef %17, i32 noundef %18, ptr noundef %19)
  ret void
}

; Function Attrs: nounwind uwtable
define internal void @write_instruction(ptr noundef %0, i32 noundef %1, ptr noundef %2) #0 {
  %4 = alloca ptr, align 8
  %5 = alloca i32, align 4
  %6 = alloca ptr, align 8
  store ptr %0, ptr %4, align 8
  store i32 %1, ptr %5, align 4
  store ptr %2, ptr %6, align 8
  %7 = load ptr, ptr %4, align 8
  %8 = load i32, ptr %5, align 4
  %9 = sext i32 %8 to i64
  %10 = getelementptr inbounds [7 x [2 x i32]], ptr @seq_instr, i64 0, i64 %9
  %11 = getelementptr inbounds [2 x i32], ptr %10, i64 0, i64 0
  %12 = load i32, ptr %11, align 8
  %13 = load i32, ptr %5, align 4
  %14 = sext i32 %13 to i64
  %15 = getelementptr inbounds [7 x [2 x i32]], ptr @seq_instr, i64 0, i64 %14
  %16 = getelementptr inbounds [2 x i32], ptr %15, i64 0, i64 1
  %17 = load i32, ptr %16, align 4
  %18 = load ptr, ptr %6, align 8
  call void @Ptngc_writebits(ptr noundef %7, i32 noundef %12, i32 noundef %17, ptr noundef %18)
  ret void
}

; Function Attrs: nounwind uwtable
define internal void @flush_large(ptr noundef %0, ptr noundef %1, ptr noundef %2, i32 noundef %3, ptr noundef %4, i32 noundef %5, ptr noundef %6, ptr noundef %7) #0 {
  %9 = alloca ptr, align 8
  %10 = alloca ptr, align 8
  %11 = alloca ptr, align 8
  %12 = alloca i32, align 4
  %13 = alloca ptr, align 8
  %14 = alloca i32, align 4
  %15 = alloca ptr, align 8
  %16 = alloca ptr, align 8
  %17 = alloca i32, align 4
  %18 = alloca i32, align 4
  store ptr %0, ptr %9, align 8
  store ptr %1, ptr %10, align 8
  store ptr %2, ptr %11, align 8
  store i32 %3, ptr %12, align 4
  store ptr %4, ptr %13, align 8
  store i32 %5, ptr %14, align 4
  store ptr %6, ptr %15, align 8
  store ptr %7, ptr %16, align 8
  %19 = load i32, ptr %12, align 4
  %20 = icmp slt i32 %19, 3
  br i1 %20, label %21, label %43

21:                                               ; preds = %8
  store i32 0, ptr %17, align 4
  br label %22

22:                                               ; preds = %39, %21
  %23 = load i32, ptr %17, align 4
  %24 = load i32, ptr %12, align 4
  %25 = icmp slt i32 %23, %24
  br i1 %25, label %26, label %42

26:                                               ; preds = %22
  %27 = load ptr, ptr %9, align 8
  %28 = load ptr, ptr %16, align 8
  call void @write_instruction(ptr noundef %27, i32 noundef 2, ptr noundef %28)
  %29 = load ptr, ptr %9, align 8
  %30 = load ptr, ptr %11, align 8
  %31 = load i32, ptr %17, align 4
  %32 = mul nsw i32 %31, 3
  %33 = sext i32 %32 to i64
  %34 = getelementptr inbounds i32, ptr %30, i64 %33
  %35 = load ptr, ptr %13, align 8
  %36 = load i32, ptr %14, align 4
  %37 = load ptr, ptr %15, align 8
  %38 = load ptr, ptr %16, align 8
  call void @write_three_large(ptr noundef %29, ptr noundef %34, ptr noundef %35, i32 noundef %36, ptr noundef %37, ptr noundef %38)
  br label %39

39:                                               ; preds = %26
  %40 = load i32, ptr %17, align 4
  %41 = add nsw i32 %40, 1
  store i32 %41, ptr %17, align 4
  br label %22, !llvm.loop !33

42:                                               ; preds = %22
  br label %69

43:                                               ; preds = %8
  %44 = load ptr, ptr %9, align 8
  %45 = load ptr, ptr %16, align 8
  call void @write_instruction(ptr noundef %44, i32 noundef 6, ptr noundef %45)
  %46 = load ptr, ptr %9, align 8
  %47 = load i32, ptr %12, align 4
  %48 = sub nsw i32 %47, 3
  %49 = load ptr, ptr %16, align 8
  call void @Ptngc_writebits(ptr noundef %46, i32 noundef %48, i32 noundef 4, ptr noundef %49)
  store i32 0, ptr %17, align 4
  br label %50

50:                                               ; preds = %65, %43
  %51 = load i32, ptr %17, align 4
  %52 = load i32, ptr %12, align 4
  %53 = icmp slt i32 %51, %52
  br i1 %53, label %54, label %68

54:                                               ; preds = %50
  %55 = load ptr, ptr %9, align 8
  %56 = load ptr, ptr %11, align 8
  %57 = load i32, ptr %17, align 4
  %58 = mul nsw i32 %57, 3
  %59 = sext i32 %58 to i64
  %60 = getelementptr inbounds i32, ptr %56, i64 %59
  %61 = load ptr, ptr %13, align 8
  %62 = load i32, ptr %14, align 4
  %63 = load ptr, ptr %15, align 8
  %64 = load ptr, ptr %16, align 8
  call void @write_three_large(ptr noundef %55, ptr noundef %60, ptr noundef %61, i32 noundef %62, ptr noundef %63, ptr noundef %64)
  br label %65

65:                                               ; preds = %54
  %66 = load i32, ptr %17, align 4
  %67 = add nsw i32 %66, 1
  store i32 %67, ptr %17, align 4
  br label %50, !llvm.loop !34

68:                                               ; preds = %50
  br label %69

69:                                               ; preds = %68, %42
  %70 = load ptr, ptr %10, align 8
  %71 = load i32, ptr %70, align 4
  %72 = load i32, ptr %12, align 4
  %73 = sub nsw i32 %71, %72
  %74 = icmp ne i32 %73, 0
  br i1 %74, label %75, label %113

75:                                               ; preds = %69
  store i32 0, ptr %17, align 4
  br label %76

76:                                               ; preds = %109, %75
  %77 = load i32, ptr %17, align 4
  %78 = load ptr, ptr %10, align 8
  %79 = load i32, ptr %78, align 4
  %80 = load i32, ptr %12, align 4
  %81 = sub nsw i32 %79, %80
  %82 = icmp slt i32 %77, %81
  br i1 %82, label %83, label %112

83:                                               ; preds = %76
  store i32 0, ptr %18, align 4
  br label %84

84:                                               ; preds = %105, %83
  %85 = load i32, ptr %18, align 4
  %86 = icmp slt i32 %85, 3
  br i1 %86, label %87, label %108

87:                                               ; preds = %84
  %88 = load ptr, ptr %11, align 8
  %89 = load i32, ptr %17, align 4
  %90 = load i32, ptr %12, align 4
  %91 = add nsw i32 %89, %90
  %92 = mul nsw i32 %91, 3
  %93 = load i32, ptr %18, align 4
  %94 = add nsw i32 %92, %93
  %95 = sext i32 %94 to i64
  %96 = getelementptr inbounds i32, ptr %88, i64 %95
  %97 = load i32, ptr %96, align 4
  %98 = load ptr, ptr %11, align 8
  %99 = load i32, ptr %17, align 4
  %100 = mul nsw i32 %99, 3
  %101 = load i32, ptr %18, align 4
  %102 = add nsw i32 %100, %101
  %103 = sext i32 %102 to i64
  %104 = getelementptr inbounds i32, ptr %98, i64 %103
  store i32 %97, ptr %104, align 4
  br label %105

105:                                              ; preds = %87
  %106 = load i32, ptr %18, align 4
  %107 = add nsw i32 %106, 1
  store i32 %107, ptr %18, align 4
  br label %84, !llvm.loop !35

108:                                              ; preds = %84
  br label %109

109:                                              ; preds = %108
  %110 = load i32, ptr %17, align 4
  %111 = add nsw i32 %110, 1
  store i32 %111, ptr %17, align 4
  br label %76, !llvm.loop !36

112:                                              ; preds = %76
  br label %113

113:                                              ; preds = %112, %69
  %114 = load ptr, ptr %10, align 8
  %115 = load i32, ptr %114, align 4
  %116 = load i32, ptr %12, align 4
  %117 = sub nsw i32 %115, %116
  %118 = load ptr, ptr %10, align 8
  store i32 %117, ptr %118, align 4
  ret void
}