; Function Attrs: nounwind uwtable
define internal fastcc void @flush_large(ptr noundef %0, ptr nocapture noundef %1, ptr nocapture noundef %2, i32 noundef %3, ptr nocapture noundef readonly %4, i32 noundef %5, ptr noundef %6, ptr noundef %7) unnamed_addr #2 {
  %9 = icmp slt i32 %3, 3
  br i1 %9, label %.preheader49, label %13

.preheader49:                                     ; preds = %8
  %10 = icmp sgt i32 %3, 0
  br i1 %10, label %.lr.ph.preheader, label %.loopexit50

.lr.ph.preheader:                                 ; preds = %.preheader49
  %wide.trip.count61 = zext nneg i32 %3 to i64
  br label %.lr.ph

.lr.ph:                                           ; preds = %.lr.ph.preheader, %.lr.ph
  %indvars.iv58 = phi i64 [ 0, %.lr.ph.preheader ], [ %indvars.iv.next59, %.lr.ph ]
  tail call void @Ptngc_writebits(ptr noundef %0, i32 noundef 4, i32 noundef 4, ptr noundef %7) #11
  %11 = mul nuw nsw i64 %indvars.iv58, 3
  %12 = getelementptr inbounds i32, ptr %2, i64 %11
  tail call fastcc void @trajcoder_base_compress(ptr noundef %12, i32 noundef 3, ptr noundef %4, ptr noundef %6)
  tail call void @Ptngc_writemanybits(ptr noundef %0, ptr noundef %6, i32 noundef %5, ptr noundef %7) #11
  %indvars.iv.next59 = add nuw nsw i64 %indvars.iv58, 1
  %exitcond62.not = icmp eq i64 %indvars.iv.next59, %wide.trip.count61
  br i1 %exitcond62.not, label %.loopexit50, label %.lr.ph, !llvm.loop !39

13:                                               ; preds = %8
  tail call void @Ptngc_writebits(ptr noundef %0, i32 noundef 15, i32 noundef 5, ptr noundef %7) #11
  %14 = add nsw i32 %3, -3
  tail call void @Ptngc_writebits(ptr noundef %0, i32 noundef %14, i32 noundef 4, ptr noundef %7) #11
  %wide.trip.count = zext nneg i32 %3 to i64
  br label %15

15:                                               ; preds = %13, %15
  %indvars.iv = phi i64 [ 0, %13 ], [ %indvars.iv.next, %15 ]
  %16 = mul nuw nsw i64 %indvars.iv, 3
  %17 = getelementptr inbounds i32, ptr %2, i64 %16
  tail call fastcc void @trajcoder_base_compress(ptr noundef %17, i32 noundef 3, ptr noundef %4, ptr noundef %6)
  tail call void @Ptngc_writemanybits(ptr noundef %0, ptr noundef %6, i32 noundef %5, ptr noundef %7) #11
  %indvars.iv.next = add nuw nsw i64 %indvars.iv, 1
  %exitcond.not = icmp eq i64 %indvars.iv.next, %wide.trip.count
  br i1 %exitcond.not, label %.loopexit50, label %15, !llvm.loop !16

.loopexit50:                                      ; preds = %15, %.lr.ph, %.preheader49
  %18 = load i32, ptr %1, align 4
  %.not = icmp eq i32 %18, %3
  br i1 %.not, label %.loopexit, label %.preheader48

.preheader48:                                     ; preds = %.loopexit50
  %19 = icmp sgt i32 %18, %3
  br i1 %19, label %.preheader.preheader, label %.loopexit

.preheader.preheader:                             ; preds = %.preheader48
  %20 = sext i32 %3 to i64
  br label %.preheader

.preheader:                                       ; preds = %.preheader.preheader, %26
  %indvars.iv68 = phi i64 [ 0, %.preheader.preheader ], [ %indvars.iv.next69, %26 ]
  %21 = add nsw i64 %indvars.iv68, %20
  %22 = mul nsw i64 %21, 3
  %23 = mul nuw nsw i64 %indvars.iv68, 3
  %invariant.gep = getelementptr i32, ptr %2, i64 %22
  %invariant.gep72 = getelementptr i32, ptr %2, i64 %23
  br label %24

24:                                               ; preds = %.preheader, %24
  %indvars.iv64 = phi i64 [ 0, %.preheader ], [ %indvars.iv.next65, %24 ]
  %gep = getelementptr i32, ptr %invariant.gep, i64 %indvars.iv64
  %25 = load i32, ptr %gep, align 4
  %gep73 = getelementptr i32, ptr %invariant.gep72, i64 %indvars.iv64
  store i32 %25, ptr %gep73, align 4
  %indvars.iv.next65 = add nuw nsw i64 %indvars.iv64, 1
  %exitcond67.not = icmp eq i64 %indvars.iv.next65, 3
  br i1 %exitcond67.not, label %26, label %24, !llvm.loop !40

26:                                               ; preds = %24
  %indvars.iv.next69 = add nuw nsw i64 %indvars.iv68, 1
  %27 = load i32, ptr %1, align 4
  %28 = sub nsw i32 %27, %3
  %29 = sext i32 %28 to i64
  %30 = icmp slt i64 %indvars.iv.next69, %29
  br i1 %30, label %.preheader, label %.loopexit, !llvm.loop !41

.loopexit:                                        ; preds = %26, %.preheader48, %.loopexit50
  %31 = phi i32 [ %18, %.preheader48 ], [ %3, %.loopexit50 ], [ %27, %26 ]
  %32 = sub nsw i32 %31, %3
  store i32 %32, ptr %1, align 4
  ret void
}